; Function Attrs: mustprogress nofree norecurse nosync nounwind willreturn memory(argmem: read) uwtable
define internal noundef i32 @_ZNK5faiss12_GLOBAL__N_118IVFBinaryScannerL2INS_16HammingComputer8EE16distance_to_codeEPKh(ptr nocapture noundef nonnull readonly align 8 dereferenceable(40) %0, ptr nocapture noundef readonly %1) unnamed_addr #14 align 2 {
  %3 = getelementptr inbounds i8, ptr %0, i64 8
  %4 = load i64, ptr %1, align 8
  %5 = load i64, ptr %3, align 8
  %6 = xor i64 %5, %4
  %7 = tail call i64 @llvm.ctpop.i64(i64 %6), !range !210
  %8 = trunc i64 %7 to i32
  ret i32 %8
}